; Function Attrs: mustprogress nounwind uwtable
define dso_local void @_ZNK4llvm6object26LoaderSectionSymbolEntry6413getSymbolNameEPKNS0_21LoaderSectionHeader64E(ptr dead_on_unwind noalias writable sret(%"class.llvm::Expected.48") align 8 %0, ptr noundef nonnull align 1 dereferenceable(24) %1, ptr noundef %2) local_unnamed_addr #0 align 2 {
  %4 = getelementptr inbounds nuw i8, ptr %1, i64 8
  call void @llvm.assume(i1 true) [ "align"(ptr %4, i64 1) ]
  %.0.copyload.i.i.i = load i32, ptr %4, align 1
  %5 = tail call noundef i32 @llvm.bswap.i32(i32 %.0.copyload.i.i.i)
  %6 = zext i32 %5 to i64
  tail call void @_ZN4llvm6object27getLoaderSecSymNameInStrTblINS0_21LoaderSectionHeader64EEENS_8ExpectedINS_9StringRefEEEPKT_m(ptr dead_on_unwind writable sret(%"class.llvm::Expected.48") align 8 %0, ptr noundef %2, i64 noundef %6)
  ret void
}